; Function Attrs: null_pointer_is_valid sspstrong uwtable
define internal range(i32 -268435456, 268435456) i32 @dissect_Latest_RRC_Version_Enhanced_PDU(ptr noundef %0, ptr noundef %1, ptr noundef %2, ptr readnone captures(none) %3) #0 {
  %5 = alloca ptr, align 8
  %6 = alloca %struct._asn1_ctx_t, align 8
  call void @llvm.lifetime.start.p0(i64 208, ptr nonnull %6) #6
  call void @asn1_ctx_init(ptr noundef nonnull %6, i32 noundef 1, i1 noundef zeroext true, ptr noundef %1)
  %7 = load i32, ptr @hf_f1ap_Latest_RRC_Version_Enhanced_PDU, align 4
  call void @llvm.lifetime.start.p0(i64 8, ptr nonnull %5) #6
  store ptr null, ptr %5, align 8
  %8 = call i32 @dissect_per_octet_string(ptr noundef %0, i32 noundef 0, ptr noundef nonnull %6, ptr noundef %2, i32 noundef %7, i32 noundef 3, i32 noundef 3, i1 noundef zeroext false, ptr noundef nonnull %5)
  %9 = load ptr, ptr %5, align 8
  %.not.i = icmp eq ptr %9, null
  br i1 %.not.i, label %dissect_f1ap_Latest_RRC_Version_Enhanced.exit, label %10

10:                                               ; preds = %4
  %11 = getelementptr inbounds nuw i8, ptr %6, i64 24
  %12 = load ptr, ptr %11, align 8
  %13 = call zeroext i8 @tvb_get_uint8(ptr noundef nonnull %9, i32 noundef 0)
  %14 = zext i8 %13 to i32
  %15 = load ptr, ptr %5, align 8
  %16 = call zeroext i8 @tvb_get_uint8(ptr noundef %15, i32 noundef 1)
  %17 = zext i8 %16 to i32
  %18 = load ptr, ptr %5, align 8
  %19 = call zeroext i8 @tvb_get_uint8(ptr noundef %18, i32 noundef 2)
  %20 = zext i8 %19 to i32
  call void (ptr, ptr, ...) @proto_item_set_text(ptr noundef %12, ptr noundef nonnull @.str.7146, i32 noundef %14, i32 noundef %17, i32 noundef %20)
  br label %dissect_f1ap_Latest_RRC_Version_Enhanced.exit

dissect_f1ap_Latest_RRC_Version_Enhanced.exit:    ; preds = %4, %10
  call void @llvm.lifetime.end.p0(i64 8, ptr nonnull %5) #6
  %21 = add i32 %8, 7
  %22 = ashr i32 %21, 3
  call void @llvm.lifetime.end.p0(i64 208, ptr nonnull %6) #6
  ret i32 %22
}